; ModuleID = '64/2758.c'
source_filename = "64/2758.c"
target datalayout = "e-m:e-p270:32:32-p271:32:32-p272:64:64-i64:64-f80:128-n8:16:32:64-S128"
target triple = "x86_64-pc-linux-gnu"

@.str = private unnamed_addr constant [3 x i8] c"%d\00", align 1
@.str.1 = private unnamed_addr constant [7 x i8] c"%d%d%d\00", align 1
@.str.2 = private unnamed_addr constant [29 x i8] c"(%d,%d,%d)-(%d,%d,%d)=%.2lf\0A\00", align 1

; Function Attrs: noinline nounwind uwtable
define dso_local i32 @main() #0 {
  %1 = alloca i32, align 4
  %2 = alloca i32, align 4
  %3 = alloca i32, align 4
  %4 = alloca i32, align 4
  %5 = alloca i32, align 4
  %6 = alloca i32, align 4
  %7 = alloca i32, align 4
  %8 = alloca i32, align 4
  %9 = alloca i32, align 4
  %10 = alloca double, align 8
  %11 = alloca i8*, align 8
  %12 = alloca i64, align 8
  %13 = alloca i64, align 8
  %14 = alloca i64, align 8
  %15 = alloca i64, align 8
  %16 = alloca i64, align 8
  store i32 0, i32* %1, align 4
  %17 = call i32 (i8*, ...) @__isoc99_scanf(i8* getelementptr inbounds ([3 x i8], [3 x i8]* @.str, i64 0, i64 0), i32* %2)
  %18 = load i32, i32* %2, align 4
  %19 = zext i32 %18 to i64
  %20 = load i32, i32* %2, align 4
  %21 = zext i32 %20 to i64
  %22 = call i8* @llvm.stacksave()
  store i8* %22, i8** %11, align 8
  %23 = mul nuw i64 %19, %21
  %24 = alloca double, i64 %23, align 16
  store i64 %19, i64* %12, align 8
  store i64 %21, i64* %13, align 8
  %25 = load i32, i32* %2, align 4
  %26 = zext i32 %25 to i64
  %27 = alloca i32, i64 %26, align 16
  store i64 %26, i64* %14, align 8
  %28 = load i32, i32* %2, align 4
  %29 = zext i32 %28 to i64
  %30 = alloca i32, i64 %29, align 16
  store i64 %29, i64* %15, align 8
  %31 = load i32, i32* %2, align 4
  %32 = zext i32 %31 to i64
  %33 = alloca i32, i64 %32, align 16
  store i64 %32, i64* %16, align 8
  %34 = load i32, i32* %2, align 4
  %35 = load i32, i32* %2, align 4
  %36 = sub nsw i32 %35, 1
  %37 = mul nsw i32 %34, %36
  %38 = sdiv i32 %37, 2
  store i32 %38, i32* %9, align 4
  store i32 0, i32* %6, align 4
  br label %39

39:                                               ; preds = %54, %0
  %40 = load i32, i32* %6, align 4
  %41 = load i32, i32* %2, align 4
  %42 = icmp slt i32 %40, %41
  br i1 %42, label %43, label %57

43:                                               ; preds = %39
  %44 = load i32, i32* %6, align 4
  %45 = sext i32 %44 to i64
  %46 = getelementptr inbounds i32, i32* %27, i64 %45
  %47 = load i32, i32* %6, align 4
  %48 = sext i32 %47 to i64
  %49 = getelementptr inbounds i32, i32* %30, i64 %48
  %50 = load i32, i32* %6, align 4
  %51 = sext i32 %50 to i64
  %52 = getelementptr inbounds i32, i32* %33, i64 %51
  %53 = call i32 (i8*, ...) @__isoc99_scanf(i8* getelementptr inbounds ([7 x i8], [7 x i8]* @.str.1, i64 0, i64 0), i32* %46, i32* %49, i32* %52)
  br label %54

54:                                               ; preds = %43
  %55 = load i32, i32* %6, align 4
  %56 = add nsw i32 %55, 1
  store i32 %56, i32* %6, align 4
  br label %39

57:                                               ; preds = %39
  store i32 0, i32* %4, align 4
  br label %58

58:                                               ; preds = %141, %57
  %59 = load i32, i32* %4, align 4
  %60 = load i32, i32* %2, align 4
  %61 = icmp slt i32 %59, %60
  br i1 %61, label %62, label %144

62:                                               ; preds = %58
  %63 = load i32, i32* %4, align 4
  %64 = add nsw i32 %63, 1
  store i32 %64, i32* %5, align 4
  br label %65

65:                                               ; preds = %69, %62
  %66 = load i32, i32* %5, align 4
  %67 = load i32, i32* %2, align 4
  %68 = icmp slt i32 %66, %67
  br i1 %68, label %69, label %140

69:                                               ; preds = %65
  %70 = load i32, i32* %4, align 4
  %71 = sext i32 %70 to i64
  %72 = getelementptr inbounds i32, i32* %27, i64 %71
  %73 = load i32, i32* %72, align 4
  %74 = load i32, i32* %5, align 4
  %75 = sext i32 %74 to i64
  %76 = getelementptr inbounds i32, i32* %27, i64 %75
  %77 = load i32, i32* %76, align 4
  %78 = sub nsw i32 %73, %77
  %79 = load i32, i32* %4, align 4
  %80 = sext i32 %79 to i64
  %81 = getelementptr inbounds i32, i32* %27, i64 %80
  %82 = load i32, i32* %81, align 4
  %83 = load i32, i32* %5, align 4
  %84 = sext i32 %83 to i64
  %85 = getelementptr inbounds i32, i32* %27, i64 %84
  %86 = load i32, i32* %85, align 4
  %87 = sub nsw i32 %82, %86
  %88 = mul nsw i32 %78, %87
  %89 = load i32, i32* %4, align 4
  %90 = sext i32 %89 to i64
  %91 = getelementptr inbounds i32, i32* %30, i64 %90
  %92 = load i32, i32* %91, align 4
  %93 = load i32, i32* %5, align 4
  %94 = sext i32 %93 to i64
  %95 = getelementptr inbounds i32, i32* %30, i64 %94
  %96 = load i32, i32* %95, align 4
  %97 = sub nsw i32 %92, %96
  %98 = load i32, i32* %4, align 4
  %99 = sext i32 %98 to i64
  %100 = getelementptr inbounds i32, i32* %30, i64 %99
  %101 = load i32, i32* %100, align 4
  %102 = load i32, i32* %5, align 4
  %103 = sext i32 %102 to i64
  %104 = getelementptr inbounds i32, i32* %30, i64 %103
  %105 = load i32, i32* %104, align 4
  %106 = sub nsw i32 %101, %105
  %107 = mul nsw i32 %97, %106
  %108 = add nsw i32 %88, %107
  %109 = load i32, i32* %4, align 4
  %110 = sext i32 %109 to i64
  %111 = getelementptr inbounds i32, i32* %33, i64 %110
  %112 = load i32, i32* %111, align 4
  %113 = load i32, i32* %5, align 4
  %114 = sext i32 %113 to i64
  %115 = getelementptr inbounds i32, i32* %33, i64 %114
  %116 = load i32, i32* %115, align 4
  %117 = sub nsw i32 %112, %116
  %118 = load i32, i32* %4, align 4
  %119 = sext i32 %118 to i64
  %120 = getelementptr inbounds i32, i32* %33, i64 %119
  %121 = load i32, i32* %120, align 4
  %122 = load i32, i32* %5, align 4
  %123 = sext i32 %122 to i64
  %124 = getelementptr inbounds i32, i32* %33, i64 %123
  %125 = load i32, i32* %124, align 4
  %126 = sub nsw i32 %121, %125
  %127 = mul nsw i32 %117, %126
  %128 = add nsw i32 %108, %127
  %129 = sitofp i32 %128 to double
  %130 = call double @sqrt(double %129) #2
  %131 = load i32, i32* %4, align 4
  %132 = sext i32 %131 to i64
  %133 = mul nsw i64 %132, %21
  %134 = getelementptr inbounds double, double* %24, i64 %133
  %135 = load i32, i32* %5, align 4
  %136 = sext i32 %135 to i64
  %137 = getelementptr inbounds double, double* %134, i64 %136
  store double %130, double* %137, align 8
  %138 = load i32, i32* %5, align 4
  %139 = add nsw i32 %138, 1
  store i32 %139, i32* %5, align 4
  br label %65

140:                                              ; preds = %65
  br label %141

141:                                              ; preds = %140
  %142 = load i32, i32* %4, align 4
  %143 = add nsw i32 %142, 1
  store i32 %143, i32* %4, align 4
  br label %58

144:                                              ; preds = %58
  store double 0.000000e+00, double* %10, align 8
  store i32 0, i32* %6, align 4
  br label %145

145:                                              ; preds = %224, %144
  %146 = load i32, i32* %6, align 4
  %147 = load i32, i32* %9, align 4
  %148 = icmp slt i32 %146, %147
  br i1 %148, label %149, label %227

149:                                              ; preds = %145
  store i32 0, i32* %4, align 4
  br label %150

150:                                              ; preds = %187, %149
  %151 = load i32, i32* %4, align 4
  %152 = load i32, i32* %2, align 4
  %153 = icmp slt i32 %151, %152
  br i1 %153, label %154, label %190

154:                                              ; preds = %150
  %155 = load i32, i32* %4, align 4
  %156 = add nsw i32 %155, 1
  store i32 %156, i32* %5, align 4
  br label %157

157:                                              ; preds = %183, %154
  %158 = load i32, i32* %5, align 4
  %159 = load i32, i32* %2, align 4
  %160 = icmp slt i32 %158, %159
  br i1 %160, label %161, label %186

161:                                              ; preds = %157
  %162 = load double, double* %10, align 8
  %163 = load i32, i32* %4, align 4
  %164 = sext i32 %163 to i64
  %165 = mul nsw i64 %164, %21
  %166 = getelementptr inbounds double, double* %24, i64 %165
  %167 = load i32, i32* %5, align 4
  %168 = sext i32 %167 to i64
  %169 = getelementptr inbounds double, double* %166, i64 %168
  %170 = load double, double* %169, align 8
  %171 = fcmp olt double %162, %170
  br i1 %171, label %172, label %183

172:                                              ; preds = %161
  %173 = load i32, i32* %4, align 4
  %174 = sext i32 %173 to i64
  %175 = mul nsw i64 %174, %21
  %176 = getelementptr inbounds double, double* %24, i64 %175
  %177 = load i32, i32* %5, align 4
  %178 = sext i32 %177 to i64
  %179 = getelementptr inbounds double, double* %176, i64 %178
  %180 = load double, double* %179, align 8
  store double %180, double* %10, align 8
  %181 = load i32, i32* %4, align 4
  store i32 %181, i32* %7, align 4
  %182 = load i32, i32* %5, align 4
  store i32 %182, i32* %8, align 4
  br label %183

183:                                              ; preds = %172, %161
  %184 = load i32, i32* %5, align 4
  %185 = add nsw i32 %184, 1
  store i32 %185, i32* %5, align 4
  br label %157

186:                                              ; preds = %157
  br label %187

187:                                              ; preds = %186
  %188 = load i32, i32* %4, align 4
  %189 = add nsw i32 %188, 1
  store i32 %189, i32* %4, align 4
  br label %150

190:                                              ; preds = %150
  %191 = load i32, i32* %7, align 4
  %192 = sext i32 %191 to i64
  %193 = getelementptr inbounds i32, i32* %27, i64 %192
  %194 = load i32, i32* %193, align 4
  %195 = load i32, i32* %7, align 4
  %196 = sext i32 %195 to i64
  %197 = getelementptr inbounds i32, i32* %30, i64 %196
  %198 = load i32, i32* %197, align 4
  %199 = load i32, i32* %7, align 4
  %200 = sext i32 %199 to i64
  %201 = getelementptr inbounds i32, i32* %33, i64 %200
  %202 = load i32, i32* %201, align 4
  %203 = load i32, i32* %8, align 4
  %204 = sext i32 %203 to i64
  %205 = getelementptr inbounds i32, i32* %27, i64 %204
  %206 = load i32, i32* %205, align 4
  %207 = load i32, i32* %8, align 4
  %208 = sext i32 %207 to i64
  %209 = getelementptr inbounds i32, i32* %30, i64 %208
  %210 = load i32, i32* %209, align 4
  %211 = load i32, i32* %8, align 4
  %212 = sext i32 %211 to i64
  %213 = getelementptr inbounds i32, i32* %33, i64 %212
  %214 = load i32, i32* %213, align 4
  %215 = load double, double* %10, align 8
  %216 = call i32 (i8*, ...) @printf(i8* getelementptr inbounds ([29 x i8], [29 x i8]* @.str.2, i64 0, i64 0), i32 %194, i32 %198, i32 %202, i32 %206, i32 %210, i32 %214, double %215)
  %217 = load i32, i32* %7, align 4
  %218 = sext i32 %217 to i64
  %219 = mul nsw i64 %218, %21
  %220 = getelementptr inbounds double, double* %24, i64 %219
  %221 = load i32, i32* %8, align 4
  %222 = sext i32 %221 to i64
  %223 = getelementptr inbounds double, double* %220, i64 %222
  store double 0.000000e+00, double* %223, align 8
  store double 0.000000e+00, double* %10, align 8
  br label %224

224:                                              ; preds = %190
  %225 = load i32, i32* %6, align 4
  %226 = add nsw i32 %225, 1
  store i32 %226, i32* %6, align 4
  br label %145

227:                                              ; preds = %145
  store i32 0, i32* %1, align 4
  %228 = load i8*, i8** %11, align 8
  call void @llvm.stackrestore(i8* %228)
  %229 = load i32, i32* %1, align 4
  ret i32 %229
}

declare dso_local i32 @__isoc99_scanf(i8*, ...) #1

; Function Attrs: nounwind
declare i8* @llvm.stacksave() #2

; Function Attrs: nounwind
declare dso_local double @sqrt(double) #3

declare dso_local i32 @printf(i8*, ...) #1

; Function Attrs: nounwind
declare void @llvm.stackrestore(i8*) #2


!llvm.module.flags = !{!0}
!llvm.ident = !{!1}

!0 = !{i32 1, !"wchar_size", i32 4}
!1 = !{!"clang version 10.0.0-4ubuntu1 "}
